; Function Attrs: mustprogress uwtable
define internal void @_ZN32pxrInternal_v0_24__pxrReserved__12_GLOBAL__N_128_DisplayColorVec3fDataSource8GetValueEf(ptr dead_on_unwind noalias nocapture writable writeonly sret(%"class.pxrInternal_v0_24__pxrReserved__::VtValue") align 8 %0, ptr noundef nonnull align 8 dereferenceable(24) %1, float noundef %2) unnamed_addr #20 align 2 personality ptr @__gxx_personality_v0 {
  %4 = tail call { <2 x float>, float } @_ZN32pxrInternal_v0_24__pxrReserved__12_GLOBAL__N_128_DisplayColorVec3fDataSource13GetTypedValueEf(ptr noundef nonnull align 8 dereferenceable(24) %1, float noundef %2)
  %.fca.0.extract = extractvalue { <2 x float>, float } %4, 0
  %.fca.1.extract = extractvalue { <2 x float>, float } %4, 1
  %5 = getelementptr inbounds nuw i8, ptr %0, i64 8
  %6 = or disjoint i64 2, ptrtoint (ptr @_ZZN32pxrInternal_v0_24__pxrReserved__7VtValue11GetTypeInfoINS_7GfVec3fEEENS_16TfPointerAndBitsIKNS0_9_TypeInfoEEEvE2ti to i64)
  %7 = inttoptr i64 %6 to ptr
  store ptr %7, ptr %5, align 8
  %8 = tail call noalias noundef nonnull dereferenceable(16) ptr @_Znwm(i64 noundef 16) #31
  store <2 x float> %.fca.0.extract, ptr %8, align 4
  %.sroa.2.0..sroa_idx2 = getelementptr inbounds i8, ptr %8, i64 8
  store float %.fca.1.extract, ptr %.sroa.2.0..sroa_idx2, align 4
  %9 = getelementptr inbounds nuw i8, ptr %8, i64 12
  store atomic i32 0, ptr %9 seq_cst, align 4
  store ptr %8, ptr %0, align 8
  %10 = atomicrmw add ptr %9, i32 1 monotonic, align 4
  ret void
}